; Function Attrs: nounwind uwtable
define i32 @avcodec_receive_frame(ptr noundef %0, ptr noundef %1) local_unnamed_addr #0 {
  tail call void @av_frame_unref(ptr noundef %1) #12
  %3 = getelementptr inbounds nuw i8, ptr %0, i64 40
  %4 = load ptr, ptr %3, align 8, !tbaa !11
  %.not11 = icmp eq ptr %4, null
  br i1 %.not11, label %15, label %5

5:                                                ; preds = %2
  %6 = getelementptr inbounds nuw i8, ptr %0, i64 16
  %7 = load ptr, ptr %6, align 8, !tbaa !31
  %.not9 = icmp eq ptr %7, null
  br i1 %.not9, label %15, label %8

8:                                                ; preds = %5
  %9 = getelementptr i8, ptr %7, i64 96
  %.val = load i32, ptr %9, align 8
  %10 = and i32 %.val, 67108864
  %.not10 = icmp eq i32 %10, 0
  br i1 %.not10, label %13, label %11

11:                                               ; preds = %8
  %12 = tail call i32 @ff_decode_receive_frame(ptr noundef nonnull %0, ptr noundef %1) #12
  br label %15

13:                                               ; preds = %8
  %14 = tail call i32 @ff_encode_receive_frame(ptr noundef nonnull %0, ptr noundef %1) #12
  br label %15

15:                                               ; preds = %2, %5, %13, %11
  %.0 = phi i32 [ %12, %11 ], [ %14, %13 ], [ -22, %5 ], [ -22, %2 ]
  ret i32 %.0
}